target datalayout = "e-m:e-p270:32:32-p271:32:32-p272:64:64-i64:64-i128:128-f80:128-n8:16:32:64-S128"
target triple = "x86_64-pc-linux-gnu"

%struct.anon = type { i32, [0 x i8] }
%struct.varattrib_1b = type { i8, [0 x i8] }
%struct.varattrib_1b_e = type { i8, i8, [0 x i8] }
%struct.FunctionCallInfoBaseData = type { ptr, ptr, ptr, i32, i8, i16, [0 x %struct.NullableDatum] }
%struct.NullableDatum = type { i64, i8 }

; Function Attrs: inlinehint nounwind uwtable
define internal i64 @BoolGetDatum(i1 noundef zeroext %0) #0 {
  %2 = alloca i8, align 1
  %3 = zext i1 %0 to i8
  store i8 %3, ptr %2, align 1
  %4 = load i8, ptr %2, align 1, !range !9, !noundef !10
  %5 = trunc i8 %4 to i1
  %6 = select i1 %5, i32 1, i32 0
  %7 = sext i32 %6 to i64
  ret i64 %7
}

; Function Attrs: inlinehint nounwind uwtable
define internal ptr @DatumGetPointer(i64 noundef %0) #0 {
  %2 = alloca i64, align 8
  store i64 %0, ptr %2, align 8
  %3 = load i64, ptr %2, align 8
  %4 = inttoptr i64 %3 to ptr
  ret ptr %4
}

; Function Attrs: nounwind uwtable
define dso_local i64 @byteage(ptr noundef %0) #1 {
  %2 = alloca ptr, align 8
  %3 = alloca ptr, align 8
  %4 = alloca ptr, align 8
  %5 = alloca i32, align 4
  %6 = alloca i32, align 4
  %7 = alloca i32, align 4
  store ptr %0, ptr %2, align 8
  call void @llvm.lifetime.start.p0(i64 8, ptr %3) #13
  %8 = load ptr, ptr %2, align 8
  %9 = getelementptr inbounds nuw %struct.FunctionCallInfoBaseData, ptr %8, i32 0, i32 6
  %10 = getelementptr inbounds [0 x %struct.NullableDatum], ptr %9, i64 0, i64 0
  %11 = getelementptr inbounds nuw %struct.NullableDatum, ptr %10, i32 0, i32 0
  %12 = load i64, ptr %11, align 8
  %13 = call ptr @DatumGetPointer(i64 noundef %12)
  %14 = call ptr @pg_detoast_datum_packed(ptr noundef %13)
  store ptr %14, ptr %3, align 8
  call void @llvm.lifetime.start.p0(i64 8, ptr %4) #13
  %15 = load ptr, ptr %2, align 8
  %16 = getelementptr inbounds nuw %struct.FunctionCallInfoBaseData, ptr %15, i32 0, i32 6
  %17 = getelementptr inbounds [0 x %struct.NullableDatum], ptr %16, i64 0, i64 1
  %18 = getelementptr inbounds nuw %struct.NullableDatum, ptr %17, i32 0, i32 0
  %19 = load i64, ptr %18, align 8
  %20 = call ptr @DatumGetPointer(i64 noundef %19)
  %21 = call ptr @pg_detoast_datum_packed(ptr noundef %20)
  store ptr %21, ptr %4, align 8
  call void @llvm.lifetime.start.p0(i64 4, ptr %5) #13
  call void @llvm.lifetime.start.p0(i64 4, ptr %6) #13
  call void @llvm.lifetime.start.p0(i64 4, ptr %7) #13
  %22 = load ptr, ptr %3, align 8
  %23 = getelementptr inbounds nuw %struct.varattrib_1b, ptr %22, i32 0, i32 0
  %24 = load i8, ptr %23, align 1
  %25 = zext i8 %24 to i32
  %26 = icmp eq i32 %25, 1
  br i1 %26, label %27, label %55

27:                                               ; preds = %1
  %28 = load ptr, ptr %3, align 8
  %29 = getelementptr inbounds nuw %struct.varattrib_1b_e, ptr %28, i32 0, i32 1
  %30 = load i8, ptr %29, align 1
  %31 = zext i8 %30 to i32
  %32 = icmp eq i32 %31, 1
  br i1 %32, label %33, label %34

33:                                               ; preds = %27
  br label %51

34:                                               ; preds = %27
  %35 = load ptr, ptr %3, align 8
  %36 = getelementptr inbounds nuw %struct.varattrib_1b_e, ptr %35, i32 0, i32 1
  %37 = load i8, ptr %36, align 1
  %38 = zext i8 %37 to i32
  %39 = and i32 %38, -2
  %40 = icmp eq i32 %39, 2
  br i1 %40, label %41, label %42

41:                                               ; preds = %34
  br label %49

42:                                               ; preds = %34
  %43 = load ptr, ptr %3, align 8
  %44 = getelementptr inbounds nuw %struct.varattrib_1b_e, ptr %43, i32 0, i32 1
  %45 = load i8, ptr %44, align 1
  %46 = zext i8 %45 to i32
  %47 = icmp eq i32 %46, 18
  %48 = select i1 %47, i64 16, i64 0
  br label %49

49:                                               ; preds = %42, %41
  %50 = phi i64 [ 8, %41 ], [ %48, %42 ]
  br label %51

51:                                               ; preds = %49, %33
  %52 = phi i64 [ 8, %33 ], [ %50, %49 ]
  %53 = add i64 2, %52
  %54 = sub i64 %53, 2
  br label %81

55:                                               ; preds = %1
  %56 = load ptr, ptr %3, align 8
  %57 = getelementptr inbounds nuw %struct.varattrib_1b, ptr %56, i32 0, i32 0
  %58 = load i8, ptr %57, align 1
  %59 = zext i8 %58 to i32
  %60 = and i32 %59, 1
  %61 = icmp eq i32 %60, 1
  br i1 %61, label %62, label %71

62:                                               ; preds = %55
  %63 = load ptr, ptr %3, align 8
  %64 = getelementptr inbounds nuw %struct.varattrib_1b, ptr %63, i32 0, i32 0
  %65 = load i8, ptr %64, align 1
  %66 = zext i8 %65 to i32
  %67 = ashr i32 %66, 1
  %68 = and i32 %67, 127
  %69 = sext i32 %68 to i64
  %70 = sub i64 %69, 1
  br label %79

71:                                               ; preds = %55
  %72 = load ptr, ptr %3, align 8
  %73 = getelementptr inbounds nuw %struct.anon, ptr %72, i32 0, i32 0
  %74 = load i32, ptr %73, align 4
  %75 = lshr i32 %74, 2
  %76 = and i32 %75, 1073741823
  %77 = sub i32 %76, 4
  %78 = zext i32 %77 to i64
  br label %79

79:                                               ; preds = %71, %62
  %80 = phi i64 [ %70, %62 ], [ %78, %71 ]
  br label %81

81:                                               ; preds = %79, %51
  %82 = phi i64 [ %54, %51 ], [ %80, %79 ]
  %83 = trunc i64 %82 to i32
  store i32 %83, ptr %5, align 4
  %84 = load ptr, ptr %4, align 8
  %85 = getelementptr inbounds nuw %struct.varattrib_1b, ptr %84, i32 0, i32 0
  %86 = load i8, ptr %85, align 1
  %87 = zext i8 %86 to i32
  %88 = icmp eq i32 %87, 1
  br i1 %88, label %89, label %117

89:                                               ; preds = %81
  %90 = load ptr, ptr %4, align 8
  %91 = getelementptr inbounds nuw %struct.varattrib_1b_e, ptr %90, i32 0, i32 1
  %92 = load i8, ptr %91, align 1
  %93 = zext i8 %92 to i32
  %94 = icmp eq i32 %93, 1
  br i1 %94, label %95, label %96

95:                                               ; preds = %89
  br label %113

96:                                               ; preds = %89
  %97 = load ptr, ptr %4, align 8
  %98 = getelementptr inbounds nuw %struct.varattrib_1b_e, ptr %97, i32 0, i32 1
  %99 = load i8, ptr %98, align 1
  %100 = zext i8 %99 to i32
  %101 = and i32 %100, -2
  %102 = icmp eq i32 %101, 2
  br i1 %102, label %103, label %104

103:                                              ; preds = %96
  br label %111

104:                                              ; preds = %96
  %105 = load ptr, ptr %4, align 8
  %106 = getelementptr inbounds nuw %struct.varattrib_1b_e, ptr %105, i32 0, i32 1
  %107 = load i8, ptr %106, align 1
  %108 = zext i8 %107 to i32
  %109 = icmp eq i32 %108, 18
  %110 = select i1 %109, i64 16, i64 0
  br label %111

111:                                              ; preds = %104, %103
  %112 = phi i64 [ 8, %103 ], [ %110, %104 ]
  br label %113

113:                                              ; preds = %111, %95
  %114 = phi i64 [ 8, %95 ], [ %112, %111 ]
  %115 = add i64 2, %114
  %116 = sub i64 %115, 2
  br label %143

117:                                              ; preds = %81
  %118 = load ptr, ptr %4, align 8
  %119 = getelementptr inbounds nuw %struct.varattrib_1b, ptr %118, i32 0, i32 0
  %120 = load i8, ptr %119, align 1
  %121 = zext i8 %120 to i32
  %122 = and i32 %121, 1
  %123 = icmp eq i32 %122, 1
  br i1 %123, label %124, label %133

124:                                              ; preds = %117
  %125 = load ptr, ptr %4, align 8
  %126 = getelementptr inbounds nuw %struct.varattrib_1b, ptr %125, i32 0, i32 0
  %127 = load i8, ptr %126, align 1
  %128 = zext i8 %127 to i32
  %129 = ashr i32 %128, 1
  %130 = and i32 %129, 127
  %131 = sext i32 %130 to i64
  %132 = sub i64 %131, 1
  br label %141

133:                                              ; preds = %117
  %134 = load ptr, ptr %4, align 8
  %135 = getelementptr inbounds nuw %struct.anon, ptr %134, i32 0, i32 0
  %136 = load i32, ptr %135, align 4
  %137 = lshr i32 %136, 2
  %138 = and i32 %137, 1073741823
  %139 = sub i32 %138, 4
  %140 = zext i32 %139 to i64
  br label %141

141:                                              ; preds = %133, %124
  %142 = phi i64 [ %132, %124 ], [ %140, %133 ]
  br label %143

143:                                              ; preds = %141, %113
  %144 = phi i64 [ %116, %113 ], [ %142, %141 ]
  %145 = trunc i64 %144 to i32
  store i32 %145, ptr %6, align 4
  %146 = load ptr, ptr %3, align 8
  %147 = getelementptr inbounds nuw %struct.varattrib_1b, ptr %146, i32 0, i32 0
  %148 = load i8, ptr %147, align 1
  %149 = zext i8 %148 to i32
  %150 = and i32 %149, 1
  %151 = icmp eq i32 %150, 1
  br i1 %151, label %152, label %156

152:                                              ; preds = %143
  %153 = load ptr, ptr %3, align 8
  %154 = getelementptr inbounds nuw %struct.varattrib_1b, ptr %153, i32 0, i32 1
  %155 = getelementptr inbounds [0 x i8], ptr %154, i64 0, i64 0
  br label %160

156:                                              ; preds = %143
  %157 = load ptr, ptr %3, align 8
  %158 = getelementptr inbounds nuw %struct.anon, ptr %157, i32 0, i32 1
  %159 = getelementptr inbounds [0 x i8], ptr %158, i64 0, i64 0
  br label %160

160:                                              ; preds = %156, %152
  %161 = phi ptr [ %155, %152 ], [ %159, %156 ]
  %162 = load ptr, ptr %4, align 8
  %163 = getelementptr inbounds nuw %struct.varattrib_1b, ptr %162, i32 0, i32 0
  %164 = load i8, ptr %163, align 1
  %165 = zext i8 %164 to i32
  %166 = and i32 %165, 1
  %167 = icmp eq i32 %166, 1
  br i1 %167, label %168, label %172

168:                                              ; preds = %160
  %169 = load ptr, ptr %4, align 8
  %170 = getelementptr inbounds nuw %struct.varattrib_1b, ptr %169, i32 0, i32 1
  %171 = getelementptr inbounds [0 x i8], ptr %170, i64 0, i64 0
  br label %176

172:                                              ; preds = %160
  %173 = load ptr, ptr %4, align 8
  %174 = getelementptr inbounds nuw %struct.anon, ptr %173, i32 0, i32 1
  %175 = getelementptr inbounds [0 x i8], ptr %174, i64 0, i64 0
  br label %176

176:                                              ; preds = %172, %168
  %177 = phi ptr [ %171, %168 ], [ %175, %172 ]
  %178 = load i32, ptr %5, align 4
  %179 = load i32, ptr %6, align 4
  %180 = icmp slt i32 %178, %179
  br i1 %180, label %181, label %183

181:                                              ; preds = %176
  %182 = load i32, ptr %5, align 4
  br label %185

183:                                              ; preds = %176
  %184 = load i32, ptr %6, align 4
  br label %185

185:                                              ; preds = %183, %181
  %186 = phi i32 [ %182, %181 ], [ %184, %183 ]
  %187 = sext i32 %186 to i64
  %188 = call i32 @memcmp(ptr noundef %161, ptr noundef %177, i64 noundef %187) #12
  store i32 %188, ptr %7, align 4
  br label %189

189:                                              ; preds = %185
  %190 = load ptr, ptr %3, align 8
  %191 = load ptr, ptr %2, align 8
  %192 = getelementptr inbounds nuw %struct.FunctionCallInfoBaseData, ptr %191, i32 0, i32 6
  %193 = getelementptr inbounds [0 x %struct.NullableDatum], ptr %192, i64 0, i64 0
  %194 = getelementptr inbounds nuw %struct.NullableDatum, ptr %193, i32 0, i32 0
  %195 = load i64, ptr %194, align 8
  %196 = call ptr @DatumGetPointer(i64 noundef %195)
  %197 = icmp ne ptr %190, %196
  br i1 %197, label %198, label %200

198:                                              ; preds = %189
  %199 = load ptr, ptr %3, align 8
  call void @pfree(ptr noundef %199)
  br label %200

200:                                              ; preds = %198, %189
  br label %201

201:                                              ; preds = %200
  br label %202

202:                                              ; preds = %201
  br label %203

203:                                              ; preds = %202
  %204 = load ptr, ptr %4, align 8
  %205 = load ptr, ptr %2, align 8
  %206 = getelementptr inbounds nuw %struct.FunctionCallInfoBaseData, ptr %205, i32 0, i32 6
  %207 = getelementptr inbounds [0 x %struct.NullableDatum], ptr %206, i64 0, i64 1
  %208 = getelementptr inbounds nuw %struct.NullableDatum, ptr %207, i32 0, i32 0
  %209 = load i64, ptr %208, align 8
  %210 = call ptr @DatumGetPointer(i64 noundef %209)
  %211 = icmp ne ptr %204, %210
  br i1 %211, label %212, label %214

212:                                              ; preds = %203
  %213 = load ptr, ptr %4, align 8
  call void @pfree(ptr noundef %213)
  br label %214

214:                                              ; preds = %212, %203
  br label %215

215:                                              ; preds = %214
  br label %216

216:                                              ; preds = %215
  %217 = load i32, ptr %7, align 4
  %218 = icmp sgt i32 %217, 0
  br i1 %218, label %228, label %219

219:                                              ; preds = %216
  %220 = load i32, ptr %7, align 4
  %221 = icmp eq i32 %220, 0
  br i1 %221, label %222, label %226

222:                                              ; preds = %219
  %223 = load i32, ptr %5, align 4
  %224 = load i32, ptr %6, align 4
  %225 = icmp sge i32 %223, %224
  br label %226

226:                                              ; preds = %222, %219
  %227 = phi i1 [ false, %219 ], [ %225, %222 ]
  br label %228

228:                                              ; preds = %226, %216
  %229 = phi i1 [ true, %216 ], [ %227, %226 ]
  %230 = call i64 @BoolGetDatum(i1 noundef zeroext %229)
  call void @llvm.lifetime.end.p0(i64 4, ptr %7) #13
  call void @llvm.lifetime.end.p0(i64 4, ptr %6) #13
  call void @llvm.lifetime.end.p0(i64 4, ptr %5) #13
  call void @llvm.lifetime.end.p0(i64 8, ptr %4) #13
  call void @llvm.lifetime.end.p0(i64 8, ptr %3) #13
  ret i64 %230
}