; Function Attrs: nounwind uwtable
define dso_local range(i64 0, 2) i64 @byteage(ptr noundef readonly captures(none) %0) local_unnamed_addr #0 {
  %2 = getelementptr inbounds nuw i8, ptr %0, i64 32
  %3 = load i64, ptr %2, align 8
  %4 = inttoptr i64 %3 to ptr
  %5 = tail call ptr @pg_detoast_datum_packed(ptr noundef %4) #19
  %6 = getelementptr inbounds nuw i8, ptr %0, i64 48
  %7 = load i64, ptr %6, align 8
  %8 = inttoptr i64 %7 to ptr
  %9 = tail call ptr @pg_detoast_datum_packed(ptr noundef %8) #19
  %10 = load i8, ptr %5, align 1
  %11 = zext i8 %10 to i32
  %12 = icmp eq i8 %10, 1
  br i1 %12, label %13, label %22

13:                                               ; preds = %1
  %14 = getelementptr inbounds nuw i8, ptr %5, i64 1
  %15 = load i8, ptr %14, align 1
  %16 = icmp eq i8 %15, 1
  %17 = and i8 %15, -2
  %18 = icmp eq i8 %17, 2
  %or.cond = or i1 %16, %18
  %19 = icmp eq i8 %15, 18
  %20 = select i1 %19, i32 16, i32 0
  %21 = select i1 %or.cond, i32 8, i32 %20
  br label %31

22:                                               ; preds = %1
  %23 = and i32 %11, 1
  %.not = icmp eq i32 %23, 0
  br i1 %.not, label %27, label %24

24:                                               ; preds = %22
  %25 = lshr i32 %11, 1
  %26 = add nsw i32 %25, -1
  br label %31

27:                                               ; preds = %22
  %28 = load i32, ptr %5, align 4
  %29 = lshr i32 %28, 2
  %30 = add nsw i32 %29, -4
  br label %31

31:                                               ; preds = %24, %27, %13
  %32 = phi i32 [ %21, %13 ], [ %26, %24 ], [ %30, %27 ]
  %33 = load i8, ptr %9, align 1
  %34 = zext i8 %33 to i32
  %35 = icmp eq i8 %33, 1
  br i1 %35, label %36, label %45

36:                                               ; preds = %31
  %37 = getelementptr inbounds nuw i8, ptr %9, i64 1
  %38 = load i8, ptr %37, align 1
  %39 = icmp eq i8 %38, 1
  %40 = and i8 %38, -2
  %41 = icmp eq i8 %40, 2
  %or.cond49 = or i1 %39, %41
  %42 = icmp eq i8 %38, 18
  %43 = select i1 %42, i32 16, i32 0
  %44 = select i1 %or.cond49, i32 8, i32 %43
  br label %54

45:                                               ; preds = %31
  %46 = and i32 %34, 1
  %.not41 = icmp eq i32 %46, 0
  br i1 %.not41, label %50, label %47

47:                                               ; preds = %45
  %48 = lshr i32 %34, 1
  %49 = add nsw i32 %48, -1
  br label %54

50:                                               ; preds = %45
  %51 = load i32, ptr %9, align 4
  %52 = lshr i32 %51, 2
  %53 = add nsw i32 %52, -4
  br label %54

54:                                               ; preds = %47, %50, %36
  %55 = phi i32 [ %44, %36 ], [ %49, %47 ], [ %53, %50 ]
  %56 = and i8 %10, 1
  %.not42 = icmp eq i8 %56, 0
  %.v = select i1 %.not42, i64 4, i64 1
  %57 = getelementptr inbounds nuw i8, ptr %5, i64 %.v
  %58 = and i8 %33, 1
  %.not43 = icmp eq i8 %58, 0
  %.v44 = select i1 %.not43, i64 4, i64 1
  %59 = getelementptr inbounds nuw i8, ptr %9, i64 %.v44
  %60 = tail call i32 @llvm.smin.i32(i32 %32, i32 %55)
  %61 = sext i32 %60 to i64
  %62 = tail call i32 @memcmp(ptr noundef nonnull %57, ptr noundef nonnull %59, i64 noundef %61) #18
  %63 = load i64, ptr %2, align 8
  %64 = inttoptr i64 %63 to ptr
  %.not45 = icmp eq ptr %5, %64
  br i1 %.not45, label %66, label %65

65:                                               ; preds = %54
  tail call void @pfree(ptr noundef nonnull %5) #19
  br label %66

66:                                               ; preds = %54, %65
  %67 = load i64, ptr %6, align 8
  %68 = inttoptr i64 %67 to ptr
  %.not46 = icmp eq ptr %9, %68
  br i1 %.not46, label %70, label %69

69:                                               ; preds = %66
  tail call void @pfree(ptr noundef nonnull %9) #19
  br label %70

70:                                               ; preds = %69, %66
  %71 = icmp sgt i32 %62, 0
  %72 = icmp eq i32 %62, 0
  %73 = icmp sge i32 %32, %55
  %74 = select i1 %72, i1 %73, i1 false
  %narrow = select i1 %71, i1 true, i1 %74
  %75 = zext i1 %narrow to i64
  ret i64 %75
}